; Function Attrs: mustprogress nofree norecurse nosync nounwind willreturn memory(read, inaccessiblemem: none) uwtable
define hidden noundef i32 @_ZNK3smt18quantifier_manager15num_quantifiersEv(ptr noundef nonnull readonly align 8 captures(none) dereferenceable(13) %0) local_unnamed_addr #9 align 2 {
  %2 = load ptr, ptr %0, align 8, !tbaa !82
  %3 = getelementptr inbounds nuw i8, ptr %2, i64 1152
  %4 = load ptr, ptr %3, align 8, !tbaa !580
  %5 = icmp eq ptr %4, null
  br i1 %5, label %_ZNK6vectorIP10quantifierLb0EjE4sizeEv.exit, label %6

6:                                                ; preds = %1
  %7 = getelementptr inbounds i8, ptr %4, i64 -4
  %8 = load i32, ptr %7, align 4, !tbaa !61
  br label %_ZNK6vectorIP10quantifierLb0EjE4sizeEv.exit

_ZNK6vectorIP10quantifierLb0EjE4sizeEv.exit:      ; preds = %1, %6
  %.0.i = phi i32 [ %8, %6 ], [ 0, %1 ]
  ret i32 %.0.i
}